; Function Attrs: mustprogress nofree norecurse nosync nounwind willreturn memory(write, argmem: readwrite, inaccessiblemem: none) uwtable
define noundef nonnull align 8 dereferenceable(16) ptr @_ZN2cv3dnn14dnn4_v202412235Model12setInputMeanERKNS_7Scalar_IdEE(ptr noundef nonnull readonly returned align 8 dereferenceable(16) %0, ptr noundef nonnull readonly align 8 captures(none) dereferenceable(32) %1) local_unnamed_addr #5 align 2 {
  %3 = load ptr, ptr %0, align 8, !tbaa !51
  %4 = getelementptr inbounds nuw i8, ptr %3, i64 32
  %5 = load double, ptr %1, align 8, !tbaa !17
  store double %5, ptr %4, align 8, !tbaa !17
  %6 = getelementptr inbounds nuw i8, ptr %1, i64 8
  %7 = load double, ptr %6, align 8, !tbaa !17
  %8 = getelementptr inbounds nuw i8, ptr %3, i64 40
  store double %7, ptr %8, align 8, !tbaa !17
  %9 = getelementptr inbounds nuw i8, ptr %1, i64 16
  %10 = load double, ptr %9, align 8, !tbaa !17
  %11 = getelementptr inbounds nuw i8, ptr %3, i64 48
  store double %10, ptr %11, align 8, !tbaa !17
  %12 = getelementptr inbounds nuw i8, ptr %1, i64 24
  %13 = load double, ptr %12, align 8, !tbaa !17
  %14 = getelementptr inbounds nuw i8, ptr %3, i64 56
  store double %13, ptr %14, align 8, !tbaa !17
  ret ptr %0
}